; Function Attrs: mustprogress nounwind uwtable
define void @_ZN4LIEF3dsc11MappingInfo8IteratorD2Ev(ptr noundef nonnull align 8 captures(none) dereferenceable(8) %0) unnamed_addr #1 align 2 {
  %2 = load ptr, ptr %0, align 8, !tbaa !42
  %.not.i = icmp eq ptr %2, null
  br i1 %.not.i, label %_ZNSt10unique_ptrIN4LIEF3dsc7details13MappingInfoItESt14default_deleteIS3_EED2Ev.exit, label %_ZNKSt14default_deleteIN4LIEF3dsc7details13MappingInfoItEEclEPS3_.exit.i

_ZNKSt14default_deleteIN4LIEF3dsc7details13MappingInfoItEEclEPS3_.exit.i: ; preds = %1
  tail call void @_ZdlPvm(ptr noundef nonnull %2, i64 noundef 1) #24
  br label %_ZNSt10unique_ptrIN4LIEF3dsc7details13MappingInfoItESt14default_deleteIS3_EED2Ev.exit

_ZNSt10unique_ptrIN4LIEF3dsc7details13MappingInfoItESt14default_deleteIS3_EED2Ev.exit: ; preds = %1, %_ZNKSt14default_deleteIN4LIEF3dsc7details13MappingInfoItEEclEPS3_.exit.i
  store ptr null, ptr %0, align 8, !tbaa !42
  ret void
}